Certificate:
    Data:
        Version: 3 (0x2)
        Serial Number: 2 (0x2)
    Signature Algorithm: sha256WithRSAEncryption
        Issuer: C=FR, ST=France, L=Grigny, O=Hassane CIE, OU=MyOrganizationUnit, CN=MyVPN/name=MyVPN/emailAddress=sangare@intechinfo.fr
        Validity
            Not Before: Oct  5 17:52:29 2016 GMT
            Not After : Oct  3 17:52:29 2026 GMT
        Subject: C=FR, ST=France, L=Grigny, O=Hassane CIE, OU=MyOrganizationalUnit, CN=client1/name=MyVPN/emailAddress=sangare@intechinfo.fr
        Subject Public Key Info:
            Public Key Algorithm: rsaEncryption
                Public-Key: (2048 bit)
                Modulus:
                    00:ca:1e:92:3b:0b:cc:ae:1f:46:4b:a6:23:80:32:
                    1d:5c:fe:0e:2d:79:93:fb:fe:14:0d:a3:6f:62:d6:
                    94:ff:84:74:78:34:76:d0:cb:c9:62:f6:ef:12:74:
                    ec:54:59:9b:d7:3b:1a:e1:7d:92:4f:a1:fc:1e:83:
                    72:fa:a1:85:a5:e5:35:dc:11:03:6b:86:57:e5:88:
                    1a:5c:4b:de:73:9b:f8:42:00:16:7c:df:6f:84:14:
                    78:a7:8c:8e:2c:b8:58:33:33:c6:2d:e6:f4:a6:12:
                    af:b8:ae:c2:4f:94:7f:66:30:3a:c8:05:d3:ab:a6:
                    c4:12:4d:0a:f9:2f:39:07:a6:d0:ae:23:37:95:f7:
                    2a:34:ee:68:28:b7:f3:86:af:6e:71:fd:59:4a:d4:
                    a5:98:bc:53:81:b4:23:57:45:58:b9:e0:11:dc:e0:
                    54:c1:48:64:20:06:c0:6a:23:72:98:da:ff:66:cd:
                    d4:8a:36:d1:0a:59:f8:a9:97:23:e6:73:0a:94:3e:
                    67:67:cb:91:cc:48:5e:5a:e5:ec:31:85:c4:dd:6f:
                    85:d8:74:2d:b9:14:48:10:1a:5e:0f:cc:2b:b8:e3:
                    de:d3:69:b1:0c:95:9a:c7:44:cc:03:9a:76:8d:ff:
                    58:13:a2:31:eb:8a:1e:fd:2e:35:b1:b2:ad:57:a7:
                    42:89
                Exponent: 65537 (0x10001)
        X509v3 extensions:
            X509v3 Basic Constraints: 
                CA:FALSE
            Netscape Comment: 
                Easy-RSA Generated Certificate
            X509v3 Subject Key Identifier: 
                4A:0A:97:DC:33:80:4A:DF:43:E6:11:C9:A1:8E:1C:38:65:B9:5E:0F
            X509v3 Authority Key Identifier: 
                keyid:3B:AB:38:7B:70:57:DE:AA:B6:EA:27:1F:17:57:2A:7C:FC:9D:4A:82
                DirName:/C=FR/ST=France/L=Grigny/O=Hassane CIE/OU=MyOrganizationUnit/CN=MyVPN/name=MyVPN/emailAddress=sangare@intechinfo.fr
                serial:93:B5:3C:84:F9:20:3B:C8

            X509v3 Extended Key Usage: 
                TLS Web Client Authentication
            X509v3 Key Usage: 
                Digital Signature
            X509v3 Subject Alternative Name: 
                DNS:client1
    Signature Algorithm: sha256WithRSAEncryption
         50:db:77:3b:79:b4:33:d5:66:a8:01:c9:36:58:41:9b:cf:87:
         b4:66:a1:09:b5:06:8a:3f:ef:0b:c1:fa:2d:13:b3:0f:df:7a:
         f1:88:d5:b8:c4:6e:57:93:95:51:44:07:ef:e5:f7:b4:32:c3:
         dd:15:14:6e:d4:73:c4:e7:72:36:6a:85:c8:72:39:a4:62:28:
         f4:6d:6e:94:4a:11:d4:d0:4d:c1:df:33:51:1a:d4:a7:5f:04:
         91:71:4e:79:16:94:94:5a:f0:7a:a7:d3:da:42:db:31:a2:53:
         3f:ac:18:d7:98:08:0c:4e:67:45:03:ec:31:da:a4:11:41:63:
         6f:27:54:99:51:e9:e5:91:66:4d:56:38:0b:d1:13:38:f0:30:
         80:ec:11:fb:84:59:54:21:78:4f:5f:c7:7b:70:ba:2d:15:2d:
         99:3a:96:60:b9:61:30:a4:d9:e2:f7:8e:1e:b5:76:43:24:6e:
         0c:cc:3f:8f:61:7f:ea:07:77:c6:bb:4d:53:c2:95:45:b4:dd:
         e7:a7:7f:09:6c:56:a1:8e:c6:38:c5:8b:5f:78:ae:b6:09:13:
         09:71:c6:7c:b3:48:30:64:c0:83:dd:da:4b:e6:b3:59:82:ce:
         d6:ff:9b:3c:6a:7b:e8:e9:f0:fe:4d:91:d4:36:cf:65:f9:a8:
         3c:77:55:d8
-----BEGIN CERTIFICATE-----
MIIFRjCCBC6gAwIBAgIBAjANBgkqhkiG9w0BAQsFADCBqDELMAkGA1UEBhMCRlIx
DzANBgNVBAgTBkZyYW5jZTEPMA0GA1UEBxMGR3JpZ255MRQwEgYDVQQKEwtIYXNz
YW5lIENJRTEbMBkGA1UECxMSTXlPcmdhbml6YXRpb25Vbml0MQ4wDAYDVQQDEwVN
eVZQTjEOMAwGA1UEKRMFTXlWUE4xJDAiBgkqhkiG9w0BCQEWFXNhbmdhcmVAaW50
ZWNoaW5mby5mcjAeFw0xNjEwMDUxNzUyMjlaFw0yNjEwMDMxNzUyMjlaMIGsMQsw
CQYDVQQGEwJGUjEPMA0GA1UECBMGRnJhbmNlMQ8wDQYDVQQHEwZHcmlnbnkxFDAS
BgNVBAoTC0hhc3NhbmUgQ0lFMR0wGwYDVQQLExRNeU9yZ2FuaXphdGlvbmFsVW5p
dDEQMA4GA1UEAxMHY2xpZW50MTEOMAwGA1UEKRMFTXlWUE4xJDAiBgkqhkiG9w0B
CQEWFXNhbmdhcmVAaW50ZWNoaW5mby5mcjCCASIwDQYJKoZIhvcNAQEBBQADggEP
ADCCAQoCggEBAMoekjsLzK4fRkumI4AyHVz+Di15k/v+FA2jb2LWlP+EdHg0dtDL
yWL27xJ07FRZm9c7GuF9kk+h/B6DcvqhhaXlNdwRA2uGV+WIGlxL3nOb+EIAFnzf
b4QUeKeMjiy4WDMzxi3m9KYSr7iuwk+Uf2YwOsgF06umxBJNCvkvOQem0K4jN5X3
KjTuaCi384avbnH9WUrUpZi8U4G0I1dFWLngEdzgVMFIZCAGwGojcpja/2bN1Io2
0QpZ+KmXI+ZzCpQ+Z2fLkcxIXlrl7DGFxN1vhdh0LbkUSBAaXg/MK7jj3tNpsQyV
msdEzAOado3/WBOiMeuKHv0uNbGyrVenQokCAwEAAaOCAXMwggFvMAkGA1UdEwQC
MAAwLQYJYIZIAYb4QgENBCAWHkVhc3ktUlNBIEdlbmVyYXRlZCBDZXJ0aWZpY2F0
ZTAdBgNVHQ4EFgQUSgqX3DOASt9D5hHJoY4cOGW5Xg8wgd0GA1UdIwSB1TCB0oAU
O6s4e3BX3qq26icfF1cqfPydSoKhga6kgaswgagxCzAJBgNVBAYTAkZSMQ8wDQYD
VQQIEwZGcmFuY2UxDzANBgNVBAcTBkdyaWdueTEUMBIGA1UEChMLSGFzc2FuZSBD
SUUxGzAZBgNVBAsTEk15T3JnYW5pemF0aW9uVW5pdDEOMAwGA1UEAxMFTXlWUE4x
DjAMBgNVBCkTBU15VlBOMSQwIgYJKoZIhvcNAQkBFhVzYW5nYXJlQGludGVjaGlu
Zm8uZnKCCQCTtTyE+SA7yDATBgNVHSUEDDAKBggrBgEFBQcDAjALBgNVHQ8EBAMC
B4AwEgYDVR0RBAswCYIHY2xpZW50MTANBgkqhkiG9w0BAQsFAAOCAQEAUNt3O3m0
M9VmqAHJNlhBm8+HtGahCbUGij/vC8H6LROzD9968YjVuMRuV5OVUUQH7+X3tDLD
3RUUbtRzxOdyNmqFyHI5pGIo9G1ulEoR1NBNwd8zURrUp18EkXFOeRaUlFrweqfT
2kLbMaJTP6wY15gIDE5nRQPsMdqkEUFjbydUmVHp5ZFmTVY4C9ETOPAwgOwR+4RZ
VCF4T1/He3C6LRUtmTqWYLlhMKTZ4veOHrV2QyRuDMw/j2F/6gd3xrtNU8KVRbTd
56d/CWxWoY7GOMWLX3iutgkTCXHGfLNIMGTAg93aS+azWYLO1v+bPGp76Onw/k2R
1DbPZfmoPHdV2A==
-----END CERTIFICATE-----
